Certificate:
    Data:
        Version: 3 (0x2)
        Serial Number:
            2b:a6:b9:ac:09:7b:fb:60:6b:55:a9:d7:11:2d:7d:22
        Signature Algorithm: sha256WithRSAEncryption
        Issuer: CN=BNSSgroup10
        Validity
            Not Before: Mar  3 18:14:40 2021 GMT
            Not After : Feb 16 18:14:40 2024 GMT
        Subject: CN=BNSS_group10
        Subject Public Key Info:
            Public Key Algorithm: rsaEncryption
                RSA Public-Key: (2048 bit)
                Modulus:
                    00:b1:c2:69:5a:a3:7a:6b:52:35:de:c1:4e:75:ad:
                    1c:75:fc:6d:ac:83:55:e6:b3:2e:62:c5:fc:e3:54:
                    22:c4:67:52:dc:11:a4:0e:7d:ff:b3:ec:70:4b:20:
                    48:89:90:0c:4d:0d:ce:be:2e:52:22:4f:5d:ce:d1:
                    90:37:ee:43:36:7d:59:97:75:9f:01:cf:a1:70:de:
                    53:04:03:d1:e7:42:fb:4a:2e:77:1b:3f:d9:87:0b:
                    89:5b:0f:f2:27:d8:63:79:04:c4:42:29:1a:38:ee:
                    92:c1:e9:15:c3:a9:07:9a:80:c4:65:27:76:c1:66:
                    00:9c:a1:6e:e1:0a:f1:51:39:00:f0:c0:62:f7:2f:
                    05:ec:ec:bd:60:06:63:d8:c8:de:b1:24:26:69:5c:
                    17:bc:9c:56:ab:fa:bc:66:fd:6e:3a:61:2d:a8:b3:
                    84:22:23:09:57:02:f3:63:af:f5:91:d0:d8:3e:19:
                    90:9f:e6:00:47:b1:03:b9:48:bd:aa:be:44:d8:9a:
                    88:ca:c0:9b:36:ba:b8:6f:f5:ee:c6:ed:ca:4c:8e:
                    34:15:81:53:e0:e6:71:a2:49:0c:6d:7d:78:46:9c:
                    60:d9:68:14:6d:12:50:0d:3a:a7:ff:39:99:7f:52:
                    c0:e2:d2:ca:d7:47:8e:e3:0c:2d:8e:69:68:3a:f6:
                    bc:67
                Exponent: 65537 (0x10001)
        X509v3 extensions:
            X509v3 Basic Constraints: 
                CA:FALSE
            X509v3 Subject Key Identifier: 
                A6:36:45:3F:5E:FF:F9:5F:38:4B:9A:A9:97:E3:3F:39:C5:01:B4:82
            X509v3 Authority Key Identifier: 
                keyid:D3:EC:9C:6A:E5:19:AA:02:86:97:C0:6E:F9:D2:73:CC:2E:B5:0E:A6
                DirName:/CN=BNSSgroup10
                serial:03:05:00:42:F9:C1:67:22:F8:D4:A6:6B:D0:F7:7E:11:9D:C8:D8:26

            X509v3 Extended Key Usage: 
                TLS Web Server Authentication
            X509v3 Key Usage: 
                Digital Signature, Key Encipherment
            X509v3 Subject Alternative Name: 
                DNS:BNSS_group10
    Signature Algorithm: sha256WithRSAEncryption
         7b:2b:89:15:95:69:eb:e1:bb:97:8f:1b:4d:dc:5c:87:f5:2d:
         bb:39:82:f1:e6:e8:1a:2e:13:48:0c:86:17:e0:f8:c9:41:2e:
         36:cd:df:e0:53:47:34:49:45:6f:c4:e6:d8:f3:44:0a:02:42:
         7a:0b:83:2a:a6:bc:d5:a1:11:61:03:6c:5b:5d:25:0c:f7:27:
         27:a6:f4:34:4e:d0:ad:c3:91:02:a8:4e:f9:17:ec:1b:11:52:
         e9:f6:3f:d2:c4:f4:15:f0:d5:c1:4a:46:c4:5a:73:00:5d:51:
         51:8c:ca:f6:ab:ca:8b:50:f8:81:cb:5b:c0:a7:ea:ec:9a:57:
         3f:1b:39:5a:02:65:71:e2:d6:5e:e4:23:92:b5:f6:7e:09:b0:
         dd:02:84:77:7a:f1:f4:10:84:8f:97:75:8f:e4:a3:d6:35:a8:
         32:c0:4b:00:a5:57:02:3e:5e:65:1f:aa:e1:bf:a0:a5:a9:5a:
         39:4f:90:14:95:56:a2:97:c8:fa:60:52:ba:ae:16:8a:75:51:
         5b:a3:71:32:19:7a:24:46:f4:78:5a:00:37:25:04:88:22:6e:
         b1:3d:7b:f0:2b:97:e6:a2:9f:d7:40:76:aa:74:e3:fe:8b:ad:
         03:18:c5:ed:2c:ac:90:f2:02:03:2c:ef:2e:83:a9:94:3c:a4:
         ea:6d:46:d0
-----BEGIN CERTIFICATE-----
MIIDczCCAlugAwIBAgIQK6a5rAl7+2BrVanXES19IjANBgkqhkiG9w0BAQsFADAW
MRQwEgYDVQQDDAtCTlNTZ3JvdXAxMDAeFw0yMTAzMDMxODE0NDBaFw0yNDAyMTYx
ODE0NDBaMBcxFTATBgNVBAMMDEJOU1NfZ3JvdXAxMDCCASIwDQYJKoZIhvcNAQEB
BQADggEPADCCAQoCggEBALHCaVqjemtSNd7BTnWtHHX8bayDVeazLmLF/ONUIsRn
UtwRpA59/7PscEsgSImQDE0Nzr4uUiJPXc7RkDfuQzZ9WZd1nwHPoXDeUwQD0edC
+0oudxs/2YcLiVsP8ifYY3kExEIpGjjuksHpFcOpB5qAxGUndsFmAJyhbuEK8VE5
APDAYvcvBezsvWAGY9jI3rEkJmlcF7ycVqv6vGb9bjphLaizhCIjCVcC82Ov9ZHQ
2D4ZkJ/mAEexA7lIvaq+RNiaiMrAmza6uG/17sbtykyONBWBU+DmcaJJDG19eEac
YNloFG0SUA06p/85mX9SwOLSytdHjuMMLY5paDr2vGcCAwEAAaOBuzCBuDAJBgNV
HRMEAjAAMB0GA1UdDgQWBBSmNkU/Xv/5XzhLmqmX4z85xQG0gjBRBgNVHSMESjBI
gBTT7Jxq5RmqAoaXwG750nPMLrUOpqEapBgwFjEUMBIGA1UEAwwLQk5TU2dyb3Vw
MTCCFAMFAEL5wWci+NSma9D3fhGdyNgmMBMGA1UdJQQMMAoGCCsGAQUFBwMBMAsG
A1UdDwQEAwIFoDAXBgNVHREEEDAOggxCTlNTX2dyb3VwMTAwDQYJKoZIhvcNAQEL
BQADggEBAHsriRWVaevhu5ePG03cXIf1Lbs5gvHm6BouE0gMhhfg+MlBLjbN3+BT
RzRJRW/E5tjzRAoCQnoLgyqmvNWhEWEDbFtdJQz3Jyem9DRO0K3DkQKoTvkX7BsR
Uun2P9LE9BXw1cFKRsRacwBdUVGMyvaryotQ+IHLW8Cn6uyaVz8bOVoCZXHi1l7k
I5K19n4JsN0ChHd68fQQhI+XdY/ko9Y1qDLASwClVwI+XmUfquG/oKWpWjlPkBSV
VqKXyPpgUrquFop1UVujcTIZeiRG9HhaADclBIgibrE9e/Arl+ain9dAdqp04/6L
rQMYxe0srJDyAgMs7y6DqZQ8pOptRtA=
-----END CERTIFICATE-----
